; Function Attrs: nounwind uwtable
define hidden void @python_hashlib_Hacl_Hash_Blake2b_finish(i32 noundef %0, ptr noundef writeonly captures(none) %1, ptr noundef readonly captures(none) %2) local_unnamed_addr #5 {
  %4 = alloca [64 x i8], align 16
  call void @llvm.lifetime.start.p0(i64 64, ptr nonnull %4) #19
  %5 = getelementptr inbounds nuw i8, ptr %4, i64 32
  %6 = getelementptr i8, ptr %2, i64 32
  %7 = load i64, ptr %2, align 8, !tbaa !3
  store i64 %7, ptr %4, align 16
  %8 = getelementptr inbounds nuw i8, ptr %4, i64 8
  %9 = getelementptr i8, ptr %2, i64 8
  %10 = load i64, ptr %9, align 8, !tbaa !3
  store i64 %10, ptr %8, align 8
  %11 = getelementptr inbounds nuw i8, ptr %4, i64 16
  %12 = getelementptr i8, ptr %2, i64 16
  %13 = load i64, ptr %12, align 8, !tbaa !3
  store i64 %13, ptr %11, align 16
  %14 = getelementptr inbounds nuw i8, ptr %4, i64 24
  %15 = getelementptr i8, ptr %2, i64 24
  %16 = load i64, ptr %15, align 8, !tbaa !3
  store i64 %16, ptr %14, align 8
  %17 = load i64, ptr %6, align 8, !tbaa !3
  store i64 %17, ptr %5, align 16
  %18 = getelementptr inbounds nuw i8, ptr %4, i64 40
  %19 = getelementptr i8, ptr %2, i64 40
  %20 = load i64, ptr %19, align 8, !tbaa !3
  store i64 %20, ptr %18, align 8
  %21 = getelementptr inbounds nuw i8, ptr %4, i64 48
  %22 = getelementptr i8, ptr %2, i64 48
  %23 = load i64, ptr %22, align 8, !tbaa !3
  store i64 %23, ptr %21, align 16
  %24 = getelementptr inbounds nuw i8, ptr %4, i64 56
  %25 = getelementptr i8, ptr %2, i64 56
  %26 = load i64, ptr %25, align 8, !tbaa !3
  store i64 %26, ptr %24, align 8
  %27 = zext i32 %0 to i64
  call void @llvm.memcpy.p0.p0.i64(ptr align 1 %1, ptr nonnull align 16 %4, i64 %27, i1 false)
  call void @Lib_Memzero0_memzero0(ptr noundef nonnull %4, i64 noundef 64) #19
  call void @llvm.lifetime.end.p0(i64 64, ptr nonnull %4) #19
  ret void
}